; Function Attrs: mustprogress nofree norecurse nosync nounwind uwtable
define internal noundef nonnull ptr @_ZN6evmone8advanced12_GLOBAL__N_12opIXadL_ZNS0_5instr4implILNS_6OpcodeE25EXadL_ZNS_5instr4core4not_ENS_8StackTopEEEEEvRNS0_22AdvancedExecutionStateEEEEEPKNS0_11InstructionESD_SA_(ptr noundef readnone captures(ret: address, provenance) %0, ptr noundef nonnull align 8 captures(none) dereferenceable(564) %1) #3 {
  %3 = alloca %"struct.intx::uint", align 8
  %4 = getelementptr inbounds nuw i8, ptr %1, i64 552
  %.sroa.0.0.copyload.i = load ptr, ptr %4, align 8, !tbaa !57
  call void @llvm.lifetime.start.p0(ptr nonnull %3) #26
  %5 = getelementptr inbounds i8, ptr %.sroa.0.0.copyload.i, i64 -32
  tail call void @llvm.experimental.noalias.scope.decl(metadata !124)
  call void @llvm.memset.p0.i64(ptr noundef nonnull align 8 dereferenceable(32) %3, i8 0, i64 32, i1 false), !tbaa !59, !alias.scope !124
  br label %6

6:                                                ; preds = %6, %2
  %.04.i.i.i = phi i64 [ 0, %2 ], [ %11, %6 ]
  %7 = getelementptr inbounds nuw i64, ptr %5, i64 %.04.i.i.i
  %8 = load i64, ptr %7, align 8, !tbaa !59, !noalias !124
  %9 = xor i64 %8, -1
  %10 = getelementptr inbounds nuw i64, ptr %3, i64 %.04.i.i.i
  store i64 %9, ptr %10, align 8, !tbaa !59, !alias.scope !124
  %11 = add nuw nsw i64 %.04.i.i.i, 1
  %exitcond.not.i.i.i = icmp eq i64 %11, 4
  br i1 %exitcond.not.i.i.i, label %_ZN6evmone8advanced5instr4implILNS_6OpcodeE25EXadL_ZNS_5instr4core4not_ENS_8StackTopEEEEEvRNS0_22AdvancedExecutionStateE.exit, label %6, !llvm.loop !127

_ZN6evmone8advanced5instr4implILNS_6OpcodeE25EXadL_ZNS_5instr4core4not_ENS_8StackTopEEEEEvRNS0_22AdvancedExecutionStateE.exit: ; preds = %6
  call void @llvm.memcpy.p0.p0.i64(ptr noundef nonnull align 8 dereferenceable(32) %5, ptr noundef nonnull align 8 dereferenceable(32) %3, i64 32, i1 false), !tbaa.struct !79
  call void @llvm.lifetime.end.p0(ptr nonnull %3) #26
  %12 = load ptr, ptr %4, align 8, !tbaa !67
  call void @llvm.assume(i1 true) [ "align"(ptr %12, i64 32) ]
  %13 = ptrtoint ptr %12 to i64
  store i64 %13, ptr %4, align 8, !tbaa !57
  %14 = getelementptr inbounds nuw i8, ptr %0, i64 16
  ret ptr %14
}